; Function Attrs: nounwind uwtable
define noalias nonnull ptr @l_Lake_instCoePatternDescr___rarg(ptr noundef %0) #0 {
  tail call void @lean_inc_heartbeat() #7
  %2 = tail call noalias ptr @mi_malloc_small(i64 noundef 16) #7
  %3 = icmp eq ptr %2, null
  br i1 %3, label %4, label %lean_alloc_ctor.exit

4:                                                ; preds = %1
  tail call void @lean_internal_panic_out_of_memory() #8
  unreachable

lean_alloc_ctor.exit:                             ; preds = %1
  %5 = getelementptr inbounds nuw i8, ptr %2, i64 4
  store i32 1, ptr %2, align 4, !tbaa !8
  store i32 50397200, ptr %5, align 4
  %6 = getelementptr inbounds nuw i8, ptr %2, i64 8
  store ptr %0, ptr %6, align 8, !tbaa !4
  ret ptr %2
}